target datalayout = "e-m:e-p270:32:32-p271:32:32-p272:64:64-i64:64-i128:128-f80:128-n8:16:32:64-S128"
target triple = "x86_64-pc-linux-gnu"

%struct.FormData_pg_cast = type { i32, i32, i32, i32, i8, i8 }
%struct.HeapTupleData = type { i32, %struct.ItemPointerData, i32, ptr }
%struct.ItemPointerData = type { %struct.BlockIdData, i16 }
%struct.BlockIdData = type { i16, i16 }
%struct.HeapTupleHeaderData = type { %union.anon, %struct.ItemPointerData, i16, i16, i8, [0 x i8] }
%union.anon = type { %struct.HeapTupleFields }
%struct.HeapTupleFields = type { i32, i32, %union.anon.0 }
%union.anon.0 = type { i32 }

; Function Attrs: inlinehint nounwind uwtable
define internal ptr @GETSTRUCT(ptr noundef %0) #3 {
  %2 = alloca ptr, align 8
  store ptr %0, ptr %2, align 8
  %3 = load ptr, ptr %2, align 8
  %4 = getelementptr inbounds nuw %struct.HeapTupleData, ptr %3, i32 0, i32 3
  %5 = load ptr, ptr %4, align 8
  %6 = load ptr, ptr %2, align 8
  %7 = getelementptr inbounds nuw %struct.HeapTupleData, ptr %6, i32 0, i32 3
  %8 = load ptr, ptr %7, align 8
  %9 = getelementptr inbounds nuw %struct.HeapTupleHeaderData, ptr %8, i32 0, i32 4
  %10 = load i8, ptr %9, align 2
  %11 = zext i8 %10 to i32
  %12 = sext i32 %11 to i64
  %13 = getelementptr inbounds i8, ptr %5, i64 %12
  ret ptr %13
}

; Function Attrs: inlinehint nounwind uwtable
define internal i64 @ObjectIdGetDatum(i32 noundef %0) #3 {
  %2 = alloca i32, align 4
  store i32 %0, ptr %2, align 4
  %3 = load i32, ptr %2, align 4
  %4 = zext i32 %3 to i64
  ret i64 %4
}

; Function Attrs: nounwind uwtable
define dso_local zeroext i1 @IsBinaryCoercibleWithCast(i32 noundef %0, i32 noundef %1, ptr noundef %2) #0 {
  %4 = alloca i1, align 1
  %5 = alloca i32, align 4
  %6 = alloca i32, align 4
  %7 = alloca ptr, align 8
  %8 = alloca ptr, align 8
  %9 = alloca ptr, align 8
  %10 = alloca i8, align 1
  %11 = alloca i32, align 4
  store i32 %0, ptr %5, align 4
  store i32 %1, ptr %6, align 4
  store ptr %2, ptr %7, align 8
  call void @llvm.lifetime.start.p0(i64 8, ptr %8) #6
  call void @llvm.lifetime.start.p0(i64 8, ptr %9) #6
  call void @llvm.lifetime.start.p0(i64 1, ptr %10) #6
  %12 = load ptr, ptr %7, align 8
  store i32 0, ptr %12, align 4
  %13 = load i32, ptr %5, align 4
  %14 = load i32, ptr %6, align 4
  %15 = icmp eq i32 %13, %14
  br i1 %15, label %16, label %17

16:                                               ; preds = %3
  store i1 true, ptr %4, align 1
  store i32 1, ptr %11, align 4
  br label %146

17:                                               ; preds = %3
  %18 = load i32, ptr %6, align 4
  %19 = icmp eq i32 %18, 2276
  br i1 %19, label %26, label %20

20:                                               ; preds = %17
  %21 = load i32, ptr %6, align 4
  %22 = icmp eq i32 %21, 2283
  br i1 %22, label %26, label %23

23:                                               ; preds = %20
  %24 = load i32, ptr %6, align 4
  %25 = icmp eq i32 %24, 5077
  br i1 %25, label %26, label %27

26:                                               ; preds = %23, %20, %17
  store i1 true, ptr %4, align 1
  store i32 1, ptr %11, align 4
  br label %146

27:                                               ; preds = %23
  %28 = load i32, ptr %5, align 4
  %29 = icmp ne i32 %28, 0
  br i1 %29, label %30, label %33

30:                                               ; preds = %27
  %31 = load i32, ptr %5, align 4
  %32 = call i32 @getBaseType(i32 noundef %31)
  store i32 %32, ptr %5, align 4
  br label %33

33:                                               ; preds = %30, %27
  %34 = load i32, ptr %5, align 4
  %35 = load i32, ptr %6, align 4
  %36 = icmp eq i32 %34, %35
  br i1 %36, label %37, label %38

37:                                               ; preds = %33
  store i1 true, ptr %4, align 1
  store i32 1, ptr %11, align 4
  br label %146

38:                                               ; preds = %33
  %39 = load i32, ptr %6, align 4
  %40 = icmp eq i32 %39, 2277
  br i1 %40, label %44, label %41

41:                                               ; preds = %38
  %42 = load i32, ptr %6, align 4
  %43 = icmp eq i32 %42, 5078
  br i1 %43, label %44, label %50

44:                                               ; preds = %41, %38
  %45 = load i32, ptr %5, align 4
  %46 = call i32 @get_element_type(i32 noundef %45)
  %47 = icmp ne i32 %46, 0
  br i1 %47, label %48, label %49

48:                                               ; preds = %44
  store i1 true, ptr %4, align 1
  store i32 1, ptr %11, align 4
  br label %146

49:                                               ; preds = %44
  br label %50

50:                                               ; preds = %49, %41
  %51 = load i32, ptr %6, align 4
  %52 = icmp eq i32 %51, 2776
  br i1 %52, label %56, label %53

53:                                               ; preds = %50
  %54 = load i32, ptr %6, align 4
  %55 = icmp eq i32 %54, 5079
  br i1 %55, label %56, label %62

56:                                               ; preds = %53, %50
  %57 = load i32, ptr %5, align 4
  %58 = call i32 @get_element_type(i32 noundef %57)
  %59 = icmp ne i32 %58, 0
  br i1 %59, label %61, label %60

60:                                               ; preds = %56
  store i1 true, ptr %4, align 1
  store i32 1, ptr %11, align 4
  br label %146

61:                                               ; preds = %56
  br label %62

62:                                               ; preds = %61, %53
  %63 = load i32, ptr %6, align 4
  %64 = icmp eq i32 %63, 3500
  br i1 %64, label %65, label %70

65:                                               ; preds = %62
  %66 = load i32, ptr %5, align 4
  %67 = call zeroext i1 @type_is_enum(i32 noundef %66)
  br i1 %67, label %68, label %69

68:                                               ; preds = %65
  store i1 true, ptr %4, align 1
  store i32 1, ptr %11, align 4
  br label %146

69:                                               ; preds = %65
  br label %70

70:                                               ; preds = %69, %62
  %71 = load i32, ptr %6, align 4
  %72 = icmp eq i32 %71, 3831
  br i1 %72, label %76, label %73

73:                                               ; preds = %70
  %74 = load i32, ptr %6, align 4
  %75 = icmp eq i32 %74, 5080
  br i1 %75, label %76, label %81

76:                                               ; preds = %73, %70
  %77 = load i32, ptr %5, align 4
  %78 = call zeroext i1 @type_is_range(i32 noundef %77)
  br i1 %78, label %79, label %80

79:                                               ; preds = %76
  store i1 true, ptr %4, align 1
  store i32 1, ptr %11, align 4
  br label %146

80:                                               ; preds = %76
  br label %81

81:                                               ; preds = %80, %73
  %82 = load i32, ptr %6, align 4
  %83 = icmp eq i32 %82, 4537
  br i1 %83, label %87, label %84

84:                                               ; preds = %81
  %85 = load i32, ptr %6, align 4
  %86 = icmp eq i32 %85, 4538
  br i1 %86, label %87, label %92

87:                                               ; preds = %84, %81
  %88 = load i32, ptr %5, align 4
  %89 = call zeroext i1 @type_is_multirange(i32 noundef %88)
  br i1 %89, label %90, label %91

90:                                               ; preds = %87
  store i1 true, ptr %4, align 1
  store i32 1, ptr %11, align 4
  br label %146

91:                                               ; preds = %87
  br label %92

92:                                               ; preds = %91, %84
  %93 = load i32, ptr %6, align 4
  %94 = icmp eq i32 %93, 2249
  br i1 %94, label %95, label %101

95:                                               ; preds = %92
  %96 = load i32, ptr %5, align 4
  %97 = call i32 @typeOrDomainTypeRelid(i32 noundef %96)
  %98 = icmp ne i32 %97, 0
  br i1 %98, label %99, label %100

99:                                               ; preds = %95
  store i1 true, ptr %4, align 1
  store i32 1, ptr %11, align 4
  br label %146

100:                                              ; preds = %95
  br label %101

101:                                              ; preds = %100, %92
  %102 = load i32, ptr %6, align 4
  %103 = icmp eq i32 %102, 2287
  br i1 %103, label %104, label %109

104:                                              ; preds = %101
  %105 = load i32, ptr %5, align 4
  %106 = call zeroext i1 @is_complex_array(i32 noundef %105)
  br i1 %106, label %107, label %108

107:                                              ; preds = %104
  store i1 true, ptr %4, align 1
  store i32 1, ptr %11, align 4
  br label %146

108:                                              ; preds = %104
  br label %109

109:                                              ; preds = %108, %101
  %110 = load i32, ptr %5, align 4
  %111 = call i64 @ObjectIdGetDatum(i32 noundef %110)
  %112 = load i32, ptr %6, align 4
  %113 = call i64 @ObjectIdGetDatum(i32 noundef %112)
  %114 = call ptr @SearchSysCache2(i32 noundef 12, i64 noundef %111, i64 noundef %113)
  store ptr %114, ptr %8, align 8
  %115 = load ptr, ptr %8, align 8
  %116 = icmp ne ptr %115, null
  br i1 %116, label %118, label %117

117:                                              ; preds = %109
  store i1 false, ptr %4, align 1
  store i32 1, ptr %11, align 4
  br label %146

118:                                              ; preds = %109
  %119 = load ptr, ptr %8, align 8
  %120 = call ptr @GETSTRUCT(ptr noundef %119)
  store ptr %120, ptr %9, align 8
  %121 = load ptr, ptr %9, align 8
  %122 = getelementptr inbounds nuw %struct.FormData_pg_cast, ptr %121, i32 0, i32 5
  %123 = load i8, ptr %122, align 1
  %124 = sext i8 %123 to i32
  %125 = icmp eq i32 %124, 98
  br i1 %125, label %126, label %132

126:                                              ; preds = %118
  %127 = load ptr, ptr %9, align 8
  %128 = getelementptr inbounds nuw %struct.FormData_pg_cast, ptr %127, i32 0, i32 4
  %129 = load i8, ptr %128, align 4
  %130 = sext i8 %129 to i32
  %131 = icmp eq i32 %130, 105
  br label %132

132:                                              ; preds = %126, %118
  %133 = phi i1 [ false, %118 ], [ %131, %126 ]
  %134 = zext i1 %133 to i8
  store i8 %134, ptr %10, align 1
  %135 = load i8, ptr %10, align 1, !range !7, !noundef !8
  %136 = trunc i8 %135 to i1
  br i1 %136, label %137, label %142

137:                                              ; preds = %132
  %138 = load ptr, ptr %9, align 8
  %139 = getelementptr inbounds nuw %struct.FormData_pg_cast, ptr %138, i32 0, i32 0
  %140 = load i32, ptr %139, align 4
  %141 = load ptr, ptr %7, align 8
  store i32 %140, ptr %141, align 4
  br label %142

142:                                              ; preds = %137, %132
  %143 = load ptr, ptr %8, align 8
  call void @ReleaseSysCache(ptr noundef %143)
  %144 = load i8, ptr %10, align 1, !range !7, !noundef !8
  %145 = trunc i8 %144 to i1
  store i1 %145, ptr %4, align 1
  store i32 1, ptr %11, align 4
  br label %146

146:                                              ; preds = %142, %117, %107, %99, %90, %79, %68, %60, %48, %37, %26, %16
  call void @llvm.lifetime.end.p0(i64 1, ptr %10) #6
  call void @llvm.lifetime.end.p0(i64 8, ptr %9) #6
  call void @llvm.lifetime.end.p0(i64 8, ptr %8) #6
  %147 = load i1, ptr %4, align 1
  ret i1 %147
}