; Function Attrs: nounwind uwtable
define dso_local noundef zeroext i1 @IsBinaryCoercibleWithCast(i32 noundef %0, i32 noundef %1, ptr noundef writeonly captures(none) initializes((0, 4)) %2) local_unnamed_addr #0 {
  store i32 0, ptr %2, align 4
  %4 = icmp eq i32 %0, %1
  br i1 %4, label %50, label %5

5:                                                ; preds = %3
  switch i32 %1, label %6 [
    i32 5077, label %50
    i32 2283, label %50
    i32 2276, label %50
  ]

6:                                                ; preds = %5
  %.not = icmp eq i32 %0, 0
  br i1 %.not, label %9, label %7

7:                                                ; preds = %6
  %8 = tail call i32 @getBaseType(i32 noundef %0) #5
  br label %9

9:                                                ; preds = %7, %6
  %.050 = phi i32 [ %8, %7 ], [ 0, %6 ]
  %10 = icmp eq i32 %.050, %1
  br i1 %10, label %50, label %11

11:                                               ; preds = %9
  switch i32 %1, label %22 [
    i32 5078, label %12
    i32 2277, label %12
    i32 5079, label %15
    i32 2776, label %15
    i32 3500, label %18
    i32 5080, label %20
    i32 3831, label %20
  ]

12:                                               ; preds = %11, %11
  %13 = tail call i32 @get_element_type(i32 noundef %.050) #5
  %.not55 = icmp eq i32 %13, 0
  br i1 %.not55, label %14, label %50

14:                                               ; preds = %12
  switch i32 %1, label %22 [
    i32 3831, label %20
    i32 2776, label %15
    i32 3500, label %18
  ]

15:                                               ; preds = %11, %11, %14
  %16 = tail call i32 @get_element_type(i32 noundef %.050) #5
  %.not56 = icmp eq i32 %16, 0
  br i1 %.not56, label %50, label %17

17:                                               ; preds = %15
  switch i32 %1, label %22 [
    i32 3500, label %18
    i32 3831, label %20
  ]

18:                                               ; preds = %11, %14, %17
  %19 = tail call zeroext i1 @type_is_enum(i32 noundef %.050) #5
  br i1 %19, label %50, label %.split

20:                                               ; preds = %17, %14, %11, %11
  %21 = tail call zeroext i1 @type_is_range(i32 noundef %.050) #5
  br i1 %21, label %50, label %22

22:                                               ; preds = %11, %14, %17, %20
  %23 = add i32 %1, -4537
  %or.cond11 = icmp ult i32 %23, 2
  br i1 %or.cond11, label %24, label %26

24:                                               ; preds = %22
  %25 = tail call zeroext i1 @type_is_multirange(i32 noundef %.050) #5
  br i1 %25, label %50, label %26

26:                                               ; preds = %24, %22
  switch i32 %1, label %.split [
    i32 2249, label %27
    i32 2287, label %30
  ]

27:                                               ; preds = %26
  %28 = tail call i32 @typeOrDomainTypeRelid(i32 noundef %.050) #5
  %.not57 = icmp eq i32 %28, 0
  br i1 %.not57, label %.split, label %50

.split:                                           ; preds = %18, %27, %26
  %29 = zext i32 %1 to i64
  br label %.split51

30:                                               ; preds = %26
  %31 = tail call fastcc zeroext i1 @is_complex_array(i32 noundef %.050)
  br i1 %31, label %50, label %.split51

.split51:                                         ; preds = %30, %.split
  %phi.call = phi i64 [ %29, %.split ], [ 2287, %30 ]
  %32 = zext i32 %.050 to i64
  %33 = tail call ptr @SearchSysCache2(i32 noundef 12, i64 noundef %32, i64 noundef %phi.call) #5
  %.not58 = icmp eq ptr %33, null
  br i1 %.not58, label %50, label %34

34:                                               ; preds = %.split51
  %35 = getelementptr i8, ptr %33, i64 16
  %.val = load ptr, ptr %35, align 8
  %36 = getelementptr inbounds nuw i8, ptr %.val, i64 22
  %37 = load i8, ptr %36, align 2
  %38 = zext i8 %37 to i64
  %39 = getelementptr inbounds nuw i8, ptr %.val, i64 %38
  %40 = getelementptr inbounds nuw i8, ptr %39, i64 17
  %41 = load i8, ptr %40, align 1
  %42 = icmp eq i8 %41, 98
  br i1 %42, label %43, label %.thread61

43:                                               ; preds = %34
  %44 = getelementptr inbounds nuw i8, ptr %39, i64 16
  %45 = load i8, ptr %44, align 4
  %46 = icmp eq i8 %45, 105
  br i1 %46, label %47, label %.thread61

47:                                               ; preds = %43
  %48 = load i32, ptr %39, align 4
  store i32 %48, ptr %2, align 4
  br label %.thread61

.thread61:                                        ; preds = %34, %47, %43
  %49 = phi i1 [ true, %47 ], [ false, %43 ], [ false, %34 ]
  tail call void @ReleaseSysCache(ptr noundef nonnull %33) #5
  br label %50

50:                                               ; preds = %.split51, %30, %27, %24, %20, %18, %15, %12, %9, %5, %5, %5, %3, %.thread61
  %.0 = phi i1 [ %49, %.thread61 ], [ true, %3 ], [ true, %5 ], [ true, %5 ], [ true, %5 ], [ true, %9 ], [ true, %12 ], [ true, %15 ], [ true, %18 ], [ true, %20 ], [ true, %24 ], [ true, %27 ], [ true, %30 ], [ false, %.split51 ]
  ret i1 %.0
}